target datalayout = "e-m:e-p270:32:32-p271:32:32-p272:64:64-i64:64-i128:128-f80:128-n8:16:32:64-S128"
target triple = "x86_64-pc-linux-gnu"

%struct.Abc_Frame_t_ = type { ptr, ptr, ptr, ptr, ptr, ptr, ptr, ptr, ptr, ptr, i32, i32, i32, i32, i32, ptr, float, float, i32, i32, ptr, ptr, ptr, double, double, ptr, ptr, ptr, ptr, ptr, ptr, ptr, ptr, ptr, ptr, ptr, ptr, float, ptr, i32, ptr, ptr, ptr, ptr, ptr, i32, i32, i32, i32, i32, i32, ptr, ptr, ptr, ptr, ptr, ptr, i32, i32, ptr, ptr, ptr, ptr, ptr, ptr, ptr, ptr, ptr, ptr, ptr, ptr, ptr, ptr, ptr, ptr, ptr, ptr, ptr, ptr, ptr, ptr, ptr, ptr, ptr, ptr, ptr, ptr, ptr, ptr }

@.str.45 = private unnamed_addr constant [33 x i8] c"   -h \09\09print the command usage\0A\00", align 1
@.str.65 = private unnamed_addr constant [2 x i8] c"h\00", align 1
@.str.74 = private unnamed_addr constant [33 x i8] c"usage: unalias [-h] alias_names\0A\00", align 1

; Function Attrs: nounwind uwtable
define internal i32 @CmdCommandUnalias(ptr noundef %0, i32 noundef %1, ptr noundef %2) #0 {
  %4 = alloca i32, align 4
  %5 = alloca ptr, align 8
  %6 = alloca i32, align 4
  %7 = alloca ptr, align 8
  %8 = alloca i32, align 4
  %9 = alloca ptr, align 8
  %10 = alloca ptr, align 8
  %11 = alloca i32, align 4
  store ptr %0, ptr %5, align 8
  store i32 %1, ptr %6, align 4
  store ptr %2, ptr %7, align 8
  call void (...) @Extra_UtilGetoptReset()
  br label %12

12:                                               ; preds = %3
  %13 = load i32, ptr %6, align 4
  %14 = load ptr, ptr %7, align 8
  %15 = call i32 @Extra_UtilGetopt(i32 noundef %13, ptr noundef %14, ptr noundef @.str.65)
  store i32 %15, ptr %11, align 4
  %16 = icmp ne i32 %15, -1
  br i1 %16, label %17, label %21

17:                                               ; preds = %12
  %18 = load i32, ptr %11, align 4
  switch i32 %18, label %20 [
    i32 104, label %19
  ]

19:                                               ; preds = %17
  br label %48

20:                                               ; preds = %17
  br label %48

21:                                               ; preds = %12
  %22 = load i32, ptr %6, align 4
  %23 = icmp slt i32 %22, 2
  br i1 %23, label %24, label %25

24:                                               ; preds = %21
  br label %48

25:                                               ; preds = %21
  store i32 1, ptr %8, align 4
  br label %26

26:                                               ; preds = %44, %25
  %27 = load i32, ptr %8, align 4
  %28 = load i32, ptr %6, align 4
  %29 = icmp slt i32 %27, %28
  br i1 %29, label %30, label %47

30:                                               ; preds = %26
  %31 = load ptr, ptr %7, align 8
  %32 = load i32, ptr %8, align 4
  %33 = sext i32 %32 to i64
  %34 = getelementptr inbounds ptr, ptr %31, i64 %33
  %35 = load ptr, ptr %34, align 8
  store ptr %35, ptr %9, align 8
  %36 = load ptr, ptr %5, align 8
  %37 = getelementptr inbounds %struct.Abc_Frame_t_, ptr %36, i32 0, i32 3
  %38 = load ptr, ptr %37, align 8
  %39 = call i32 @st__delete(ptr noundef %38, ptr noundef %9, ptr noundef %10)
  %40 = icmp ne i32 %39, 0
  br i1 %40, label %41, label %43

41:                                               ; preds = %30
  %42 = load ptr, ptr %10, align 8
  call void @CmdCommandAliasFree(ptr noundef %42)
  br label %43

43:                                               ; preds = %41, %30
  br label %44

44:                                               ; preds = %43
  %45 = load i32, ptr %8, align 4
  %46 = add nsw i32 %45, 1
  store i32 %46, ptr %8, align 4
  br label %26, !llvm.loop !13

47:                                               ; preds = %26
  store i32 0, ptr %4, align 4
  br label %57

48:                                               ; preds = %24, %20, %19
  %49 = load ptr, ptr %5, align 8
  %50 = getelementptr inbounds %struct.Abc_Frame_t_, ptr %49, i32 0, i32 21
  %51 = load ptr, ptr %50, align 8
  %52 = call i32 (ptr, ptr, ...) @fprintf(ptr noundef %51, ptr noundef @.str.74) #9
  %53 = load ptr, ptr %5, align 8
  %54 = getelementptr inbounds %struct.Abc_Frame_t_, ptr %53, i32 0, i32 21
  %55 = load ptr, ptr %54, align 8
  %56 = call i32 (ptr, ptr, ...) @fprintf(ptr noundef %55, ptr noundef @.str.45) #9
  store i32 1, ptr %4, align 4
  br label %57

57:                                               ; preds = %48, %47
  %58 = load i32, ptr %4, align 4
  ret i32 %58
}