; Function Attrs: nounwind uwtable
define internal range(i32 0, 2) i32 @CmdCommandUnalias(ptr noundef readonly captures(none) %0, i32 noundef %1, ptr noundef %2) #0 {
  %4 = alloca ptr, align 8
  %5 = alloca ptr, align 8
  tail call void (...) @Extra_UtilGetoptReset() #17
  %6 = tail call i32 @Extra_UtilGetopt(i32 noundef %1, ptr noundef %2, ptr noundef nonnull @.str.65) #17
  %7 = icmp ne i32 %6, -1
  %8 = icmp slt i32 %1, 2
  %or.cond = or i1 %8, %7
  br i1 %or.cond, label %18, label %.preheader

.preheader:                                       ; preds = %3
  %9 = getelementptr inbounds nuw i8, ptr %0, i64 24
  %wide.trip.count = zext nneg i32 %1 to i64
  br label %10

10:                                               ; preds = %.preheader, %17
  %indvars.iv = phi i64 [ 1, %.preheader ], [ %indvars.iv.next, %17 ]
  %11 = getelementptr inbounds nuw ptr, ptr %2, i64 %indvars.iv
  %12 = load ptr, ptr %11, align 8
  store ptr %12, ptr %4, align 8
  %13 = load ptr, ptr %9, align 8
  %14 = call i32 @st__delete(ptr noundef %13, ptr noundef nonnull %4, ptr noundef nonnull %5) #17
  %.not = icmp eq i32 %14, 0
  br i1 %.not, label %17, label %15

15:                                               ; preds = %10
  %16 = load ptr, ptr %5, align 8
  call void @CmdCommandAliasFree(ptr noundef %16) #17
  br label %17

17:                                               ; preds = %10, %15
  %indvars.iv.next = add nuw nsw i64 %indvars.iv, 1
  %exitcond.not = icmp eq i64 %indvars.iv.next, %wide.trip.count
  br i1 %exitcond.not, label %.loopexit, label %10, !llvm.loop !13

18:                                               ; preds = %3
  %19 = getelementptr inbounds nuw i8, ptr %0, i64 136
  %20 = load ptr, ptr %19, align 8
  %21 = tail call i64 @fwrite(ptr nonnull @.str.74, i64 32, i64 1, ptr %20)
  %22 = load ptr, ptr %19, align 8
  %23 = tail call i64 @fwrite(ptr nonnull @.str.45, i64 32, i64 1, ptr %22)
  br label %.loopexit

.loopexit:                                        ; preds = %17, %18
  %.0 = phi i32 [ 1, %18 ], [ 0, %17 ]
  ret i32 %.0
}